target datalayout = "e-m:e-p270:32:32-p271:32:32-p272:64:64-i64:64-i128:128-f80:128-n8:16:32:64-S128"
target triple = "x86_64-pc-linux-gnu"

%struct.ObjectAddress = type { i32, i32, i32 }
%struct.ObjectAddresses = type { ptr, ptr, i32, i32 }

; Function Attrs: nounwind uwtable
define dso_local zeroext i1 @object_address_present(ptr noundef %0, ptr noundef %1) #0 {
  %3 = alloca i1, align 1
  %4 = alloca ptr, align 8
  %5 = alloca ptr, align 8
  %6 = alloca i32, align 4
  %7 = alloca ptr, align 8
  %8 = alloca i32, align 4
  store ptr %0, ptr %4, align 8
  store ptr %1, ptr %5, align 8
  call void @llvm.lifetime.start.p0(i64 4, ptr %6) #8
  %9 = load ptr, ptr %5, align 8
  %10 = getelementptr inbounds nuw %struct.ObjectAddresses, ptr %9, i32 0, i32 2
  %11 = load i32, ptr %10, align 8
  %12 = sub i32 %11, 1
  store i32 %12, ptr %6, align 4
  br label %13

13:                                               ; preds = %57, %2
  %14 = load i32, ptr %6, align 4
  %15 = icmp sge i32 %14, 0
  br i1 %15, label %16, label %60

16:                                               ; preds = %13
  call void @llvm.lifetime.start.p0(i64 8, ptr %7) #8
  %17 = load ptr, ptr %5, align 8
  %18 = getelementptr inbounds nuw %struct.ObjectAddresses, ptr %17, i32 0, i32 0
  %19 = load ptr, ptr %18, align 8
  %20 = load i32, ptr %6, align 4
  %21 = sext i32 %20 to i64
  %22 = getelementptr inbounds %struct.ObjectAddress, ptr %19, i64 %21
  store ptr %22, ptr %7, align 8
  %23 = load ptr, ptr %4, align 8
  %24 = getelementptr inbounds nuw %struct.ObjectAddress, ptr %23, i32 0, i32 0
  %25 = load i32, ptr %24, align 4
  %26 = load ptr, ptr %7, align 8
  %27 = getelementptr inbounds nuw %struct.ObjectAddress, ptr %26, i32 0, i32 0
  %28 = load i32, ptr %27, align 4
  %29 = icmp eq i32 %25, %28
  br i1 %29, label %30, label %53

30:                                               ; preds = %16
  %31 = load ptr, ptr %4, align 8
  %32 = getelementptr inbounds nuw %struct.ObjectAddress, ptr %31, i32 0, i32 1
  %33 = load i32, ptr %32, align 4
  %34 = load ptr, ptr %7, align 8
  %35 = getelementptr inbounds nuw %struct.ObjectAddress, ptr %34, i32 0, i32 1
  %36 = load i32, ptr %35, align 4
  %37 = icmp eq i32 %33, %36
  br i1 %37, label %38, label %53

38:                                               ; preds = %30
  %39 = load ptr, ptr %4, align 8
  %40 = getelementptr inbounds nuw %struct.ObjectAddress, ptr %39, i32 0, i32 2
  %41 = load i32, ptr %40, align 4
  %42 = load ptr, ptr %7, align 8
  %43 = getelementptr inbounds nuw %struct.ObjectAddress, ptr %42, i32 0, i32 2
  %44 = load i32, ptr %43, align 4
  %45 = icmp eq i32 %41, %44
  br i1 %45, label %51, label %46

46:                                               ; preds = %38
  %47 = load ptr, ptr %7, align 8
  %48 = getelementptr inbounds nuw %struct.ObjectAddress, ptr %47, i32 0, i32 2
  %49 = load i32, ptr %48, align 4
  %50 = icmp eq i32 %49, 0
  br i1 %50, label %51, label %52

51:                                               ; preds = %46, %38
  store i1 true, ptr %3, align 1
  store i32 1, ptr %8, align 4
  br label %54

52:                                               ; preds = %46
  br label %53

53:                                               ; preds = %52, %30, %16
  store i32 0, ptr %8, align 4
  br label %54

54:                                               ; preds = %53, %51
  call void @llvm.lifetime.end.p0(i64 8, ptr %7) #8
  %55 = load i32, ptr %8, align 4
  switch i32 %55, label %61 [
    i32 0, label %56
  ]

56:                                               ; preds = %54
  br label %57

57:                                               ; preds = %56
  %58 = load i32, ptr %6, align 4
  %59 = add i32 %58, -1
  store i32 %59, ptr %6, align 4
  br label %13, !llvm.loop !29

60:                                               ; preds = %13
  store i1 false, ptr %3, align 1
  store i32 1, ptr %8, align 4
  br label %61

61:                                               ; preds = %60, %54
  call void @llvm.lifetime.end.p0(i64 4, ptr %6) #8
  %62 = load i1, ptr %3, align 1
  ret i1 %62
}