; Function Attrs: nofree norecurse nosync nounwind memory(read, inaccessiblemem: none) uwtable
define dso_local noundef zeroext i1 @object_address_present(ptr noundef readonly captures(none) %0, ptr noundef readonly captures(none) %1) local_unnamed_addr #5 {
  %3 = getelementptr inbounds nuw i8, ptr %1, i64 16
  %4 = load i32, ptr %3, align 8
  %.01416 = add i32 %4, -1
  %5 = icmp sgt i32 %.01416, -1
  br i1 %5, label %.lr.ph, label %._crit_edge

.lr.ph:                                           ; preds = %2
  %6 = load ptr, ptr %1, align 8
  %7 = load i32, ptr %0, align 4
  %8 = getelementptr inbounds nuw i8, ptr %0, i64 4
  %9 = getelementptr inbounds nuw i8, ptr %0, i64 8
  %10 = zext nneg i32 %.01416 to i64
  br label %11

11:                                               ; preds = %.lr.ph, %.critedge
  %indvars.iv = phi i64 [ %10, %.lr.ph ], [ %indvars.iv.next, %.critedge ]
  %12 = getelementptr inbounds nuw %struct.ObjectAddress, ptr %6, i64 %indvars.iv
  %13 = load i32, ptr %12, align 4
  %14 = icmp eq i32 %7, %13
  br i1 %14, label %15, label %.critedge

15:                                               ; preds = %11
  %16 = load i32, ptr %8, align 4
  %17 = getelementptr inbounds nuw i8, ptr %12, i64 4
  %18 = load i32, ptr %17, align 4
  %19 = icmp eq i32 %16, %18
  br i1 %19, label %20, label %.critedge

20:                                               ; preds = %15
  %21 = load i32, ptr %9, align 4
  %22 = getelementptr inbounds nuw i8, ptr %12, i64 8
  %23 = load i32, ptr %22, align 4
  %24 = icmp eq i32 %21, %23
  %25 = icmp eq i32 %23, 0
  %or.cond = or i1 %24, %25
  br i1 %or.cond, label %._crit_edge, label %.critedge

.critedge:                                        ; preds = %20, %15, %11
  %indvars.iv.next = add nsw i64 %indvars.iv, -1
  %26 = icmp sgt i64 %indvars.iv, 0
  br i1 %26, label %11, label %._crit_edge, !llvm.loop !10

._crit_edge:                                      ; preds = %20, %.critedge, %2
  %.lcssa = phi i1 [ false, %2 ], [ false, %.critedge ], [ true, %20 ]
  ret i1 %.lcssa
}